target datalayout = "e-m:e-p270:32:32-p271:32:32-p272:64:64-i64:64-i128:128-f80:128-n8:16:32:64-S128"
target triple = "x86_64-pc-linux-gnu"

%class.LIR_Opr = type { i64 }
%class.PhiResolverState = type { %class.GrowableArray, %class.GrowableArray, %class.GrowableArray }
%class.GrowableArray = type { %class.GrowableArrayWithAllocator, %class.GrowableArrayMetadata }
%class.GrowableArrayWithAllocator = type { %class.GrowableArrayView }
%class.GrowableArrayView = type { %class.GrowableArrayBase, ptr }
%class.GrowableArrayBase = type { i32, i32 }
%class.GrowableArrayMetadata = type { i64 }
%class.LIRGenerator = type { %class.InstructionVisitor, %class.BlockClosure, ptr, ptr, %class.PhiResolverState, ptr, i32, %class.BitMap2D, ptr, %class.GrowableArray.0, %class.GrowableArray.3, %class.GrowableArray.6, ptr }
%class.InstructionVisitor = type { ptr }
%class.BlockClosure = type { ptr }
%class.BitMap2D = type { %class.ResourceBitMap, i64 }
%class.ResourceBitMap = type { %class.GrowableBitMap }
%class.GrowableBitMap = type { %class.BitMap }
%class.BitMap = type { ptr, i64 }
%class.GrowableArray.0 = type { %class.GrowableArrayWithAllocator.1, %class.GrowableArrayMetadata }
%class.GrowableArrayWithAllocator.1 = type { %class.GrowableArrayView.2 }
%class.GrowableArrayView.2 = type { %class.GrowableArrayBase, ptr }
%class.GrowableArray.3 = type { %class.GrowableArrayWithAllocator.4, %class.GrowableArrayMetadata }
%class.GrowableArrayWithAllocator.4 = type { %class.GrowableArrayView.5 }
%class.GrowableArrayView.5 = type { %class.GrowableArrayBase, ptr }
%class.GrowableArray.6 = type { %class.GrowableArrayWithAllocator.7, %class.GrowableArrayMetadata }
%class.GrowableArrayWithAllocator.7 = type { %class.GrowableArrayView.8 }
%class.GrowableArrayView.8 = type { %class.GrowableArrayBase, ptr }
%class.ciMetadata = type { %class.ciBaseObject.base, ptr }
%class.ciBaseObject.base = type <{ ptr, i32 }>

@TieredCompilation = external global i8, align 1
@TieredStopAtLevel = external global i64, align 8
@_ZN9Arguments5_modeE = external global i32, align 4
@_ZN19CompilationModeFlag5_modeE = external global i32, align 4
@EnableJVMCI = external global i8, align 1

; Function Attrs: mustprogress nounwind uwtable
define linkonce_odr hidden noundef i32 @_ZN9Arguments4modeEv() #1 comdat align 2 {
  %1 = load i32, ptr @_ZN9Arguments5_modeE, align 4
  ret i32 %1
}

; Function Attrs: mustprogress nounwind uwtable
define linkonce_odr hidden noundef zeroext i1 @_ZN9Arguments19is_interpreter_onlyEv() #1 comdat align 2 {
  %1 = call noundef i32 @_ZN9Arguments4modeEv()
  %2 = icmp eq i32 %1, 0
  ret i1 %2
}

; Function Attrs: mustprogress nounwind uwtable
define linkonce_odr hidden noundef zeroext i1 @_ZN19CompilationModeFlag10quick_onlyEv() #1 comdat align 2 {
  %1 = load i32, ptr @_ZN19CompilationModeFlag5_modeE, align 4
  %2 = icmp eq i32 %1, 1
  ret i1 %2
}

; Function Attrs: mustprogress nounwind uwtable
define linkonce_odr hidden noundef zeroext i1 @_ZN14CompilerConfig19is_interpreter_onlyEv() #1 comdat align 2 {
  %1 = call noundef zeroext i1 @_ZN9Arguments19is_interpreter_onlyEv()
  br i1 %1, label %5, label %2

2:                                                ; preds = %0
  %3 = load i64, ptr @TieredStopAtLevel, align 8
  %4 = icmp eq i64 %3, 0
  br label %5

5:                                                ; preds = %2, %0
  %6 = phi i1 [ true, %0 ], [ %4, %2 ]
  ret i1 %6
}

; Function Attrs: mustprogress nounwind uwtable
define linkonce_odr hidden noundef zeroext i1 @_ZN14CompilerConfig8is_jvmciEv() #1 comdat align 2 {
  %1 = load i8, ptr @EnableJVMCI, align 1
  %2 = trunc i8 %1 to i1
  ret i1 %2
}

; Function Attrs: mustprogress nounwind uwtable
define linkonce_odr hidden noundef zeroext i1 @_ZN14CompilerConfig10is_c1_onlyEv() #1 comdat align 2 {
  %1 = alloca i1, align 1
  %2 = alloca i8, align 1
  %3 = alloca i8, align 1
  %4 = alloca i8, align 1
  %5 = call noundef zeroext i1 @_ZN14CompilerConfig19is_interpreter_onlyEv()
  br i1 %5, label %27, label %6

6:                                                ; preds = %0
  store i8 0, ptr %2, align 1
  %7 = load i8, ptr @TieredCompilation, align 1
  %8 = trunc i8 %7 to i1
  br i1 %8, label %9, label %15

9:                                                ; preds = %6
  %10 = load i64, ptr @TieredStopAtLevel, align 8
  %11 = icmp sge i64 %10, 1
  br i1 %11, label %12, label %15

12:                                               ; preds = %9
  %13 = load i64, ptr @TieredStopAtLevel, align 8
  %14 = icmp slt i64 %13, 4
  br label %15

15:                                               ; preds = %12, %9, %6
  %16 = phi i1 [ false, %9 ], [ false, %6 ], [ %14, %12 ]
  %17 = zext i1 %16 to i8
  store i8 %17, ptr %3, align 1
  %18 = call noundef zeroext i1 @_ZN19CompilationModeFlag10quick_onlyEv()
  %19 = zext i1 %18 to i8
  store i8 %19, ptr %4, align 1
  %20 = load i8, ptr %3, align 1
  %21 = trunc i8 %20 to i1
  br i1 %21, label %25, label %22

22:                                               ; preds = %15
  %23 = load i8, ptr %4, align 1
  %24 = trunc i8 %23 to i1
  br label %25

25:                                               ; preds = %22, %15
  %26 = phi i1 [ true, %15 ], [ %24, %22 ]
  store i1 %26, ptr %1, align 1
  br label %28

27:                                               ; preds = %0
  store i1 false, ptr %1, align 1
  br label %28

28:                                               ; preds = %27, %25
  %29 = load i1, ptr %1, align 1
  ret i1 %29
}

; Function Attrs: mustprogress nounwind uwtable
define linkonce_odr hidden noundef ptr @_ZN10ciMetadata17constant_encodingEv(ptr noundef nonnull align 8 dereferenceable(24) %0) #1 comdat align 2 {
  %2 = alloca ptr, align 8
  store ptr %0, ptr %2, align 8
  %3 = load ptr, ptr %2, align 8
  %4 = getelementptr inbounds %class.ciMetadata, ptr %3, i32 0, i32 1
  %5 = load ptr, ptr %4, align 8
  ret ptr %5
}

; Function Attrs: mustprogress nounwind uwtable
define linkonce_odr hidden noundef ptr @_ZNK12LIRGenerator3lirEv(ptr noundef nonnull align 8 dereferenceable(232) %0) #1 comdat align 2 {
  %2 = alloca ptr, align 8
  store ptr %0, ptr %2, align 8
  %3 = load ptr, ptr %2, align 8
  %4 = getelementptr inbounds %class.LIRGenerator, ptr %3, i32 0, i32 8
  %5 = load ptr, ptr %4, align 8
  ret ptr %5
}

; Function Attrs: mustprogress nounwind uwtable
define linkonce_odr hidden noundef ptr @_ZN12LIRGenerator3genEv(ptr noundef nonnull align 8 dereferenceable(232) %0) #1 comdat align 2 {
  %2 = alloca ptr, align 8
  store ptr %0, ptr %2, align 8
  %3 = load ptr, ptr %2, align 8
  ret ptr %3
}

; Function Attrs: mustprogress nounwind uwtable
define linkonce_odr hidden noundef zeroext i1 @_ZNK10ciMetadata9is_loadedEv(ptr noundef nonnull align 8 dereferenceable(24) %0) #1 comdat align 2 {
  %2 = alloca ptr, align 8
  store ptr %0, ptr %2, align 8
  %3 = load ptr, ptr %2, align 8
  %4 = getelementptr inbounds %class.ciMetadata, ptr %3, i32 0, i32 1
  %5 = load ptr, ptr %4, align 8
  %6 = icmp ne ptr %5, null
  br i1 %6, label %12, label %7

7:                                                ; preds = %1
  %8 = load ptr, ptr %3, align 8
  %9 = getelementptr inbounds ptr, ptr %8, i64 4
  %10 = load ptr, ptr %9, align 8
  %11 = call noundef zeroext i1 %10(ptr noundef nonnull align 8 dereferenceable(24) %3)
  br label %12

12:                                               ; preds = %7, %1
  %13 = phi i1 [ true, %1 ], [ %11, %7 ]
  ret i1 %13
}

; Function Attrs: mustprogress nounwind uwtable
define linkonce_odr hidden noundef zeroext i1 @_ZN14CompilerConfig19is_c1_only_no_jvmciEv() #1 comdat align 2 {
  %1 = call noundef zeroext i1 @_ZN14CompilerConfig10is_c1_onlyEv()
  br i1 %1, label %2, label %5

2:                                                ; preds = %0
  %3 = call noundef zeroext i1 @_ZN14CompilerConfig8is_jvmciEv()
  %4 = xor i1 %3, true
  br label %5

5:                                                ; preds = %2, %0
  %6 = phi i1 [ false, %0 ], [ %4, %2 ]
  ret i1 %6
}

; Function Attrs: mustprogress nounwind uwtable
define hidden void @_ZN12LIRGenerator23klass2reg_with_patchingE7LIR_OprP10ciMetadataP12CodeEmitInfob(ptr noundef nonnull align 8 dereferenceable(232) %0, i64 %1, ptr noundef %2, ptr noundef %3, i1 noundef zeroext %4) #1 align 2 {
  %6 = alloca %class.LIR_Opr, align 8
  %7 = alloca ptr, align 8
  %8 = alloca ptr, align 8
  %9 = alloca ptr, align 8
  %10 = alloca i8, align 1
  %11 = alloca %class.LIR_Opr, align 8
  %12 = alloca %class.LIR_Opr, align 8
  %13 = getelementptr inbounds %class.LIR_Opr, ptr %6, i32 0, i32 0
  store i64 %1, ptr %13, align 8
  store ptr %0, ptr %7, align 8
  store ptr %2, ptr %8, align 8
  store ptr %3, ptr %9, align 8
  %14 = zext i1 %4 to i8
  store i8 %14, ptr %10, align 1
  %15 = load ptr, ptr %7, align 8
  %16 = call noundef zeroext i1 @_ZN14CompilerConfig19is_c1_only_no_jvmciEv()
  br i1 %16, label %20, label %17

17:                                               ; preds = %5
  %18 = load i8, ptr %10, align 1
  %19 = trunc i8 %18 to i1
  br i1 %19, label %23, label %20

20:                                               ; preds = %17, %5
  %21 = load ptr, ptr %8, align 8
  %22 = call noundef zeroext i1 @_ZNK10ciMetadata9is_loadedEv(ptr noundef nonnull align 8 dereferenceable(24) %21)
  br i1 %22, label %29, label %23

23:                                               ; preds = %20, %17
  %24 = call noundef ptr @_ZN12LIRGenerator3genEv(ptr noundef nonnull align 8 dereferenceable(232) %15)
  %25 = call noundef ptr @_ZNK12LIRGenerator3lirEv(ptr noundef nonnull align 8 dereferenceable(232) %24)
  call void @llvm.memcpy.p0.p0.i64(ptr align 8 %11, ptr align 8 %6, i64 8, i1 false)
  %26 = load ptr, ptr %9, align 8
  %27 = getelementptr inbounds %class.LIR_Opr, ptr %11, i32 0, i32 0
  %28 = load i64, ptr %27, align 8
  call void @_ZN8LIR_List15klass2reg_patchEP8Metadata7LIR_OprP12CodeEmitInfo(ptr noundef nonnull align 8 dereferenceable(32) %25, ptr noundef null, i64 %28, ptr noundef %26)
  br label %36

29:                                               ; preds = %20
  %30 = call noundef ptr @_ZN12LIRGenerator3genEv(ptr noundef nonnull align 8 dereferenceable(232) %15)
  %31 = call noundef ptr @_ZNK12LIRGenerator3lirEv(ptr noundef nonnull align 8 dereferenceable(232) %30)
  %32 = load ptr, ptr %8, align 8
  %33 = call noundef ptr @_ZN10ciMetadata17constant_encodingEv(ptr noundef nonnull align 8 dereferenceable(24) %32)
  call void @llvm.memcpy.p0.p0.i64(ptr align 8 %12, ptr align 8 %6, i64 8, i1 false)
  %34 = getelementptr inbounds %class.LIR_Opr, ptr %12, i32 0, i32 0
  %35 = load i64, ptr %34, align 8
  call void @_ZN8LIR_List12metadata2regEP8Metadata7LIR_Opr(ptr noundef nonnull align 8 dereferenceable(32) %31, ptr noundef %33, i64 %35)
  br label %36

36:                                               ; preds = %29, %23
  ret void
}