; Function Attrs: mustprogress nounwind uwtable
define hidden void @_ZN12LIRGenerator23klass2reg_with_patchingE7LIR_OprP10ciMetadataP12CodeEmitInfob(ptr nocapture noundef nonnull readonly align 8 dereferenceable(232) %0, i64 %1, ptr noundef %2, ptr noundef %3, i1 noundef zeroext %4) local_unnamed_addr #3 align 2 {
  %6 = load i32, ptr @_ZN9Arguments5_modeE, align 4
  %7 = icmp eq i32 %6, 0
  %8 = load i64, ptr @TieredStopAtLevel, align 8
  %9 = icmp eq i64 %8, 0
  %10 = select i1 %7, i1 true, i1 %9
  br i1 %10, label %_ZN14CompilerConfig19is_c1_only_no_jvmciEv.exit, label %_ZN14CompilerConfig10is_c1_onlyEv.exit.i

_ZN14CompilerConfig10is_c1_onlyEv.exit.i:         ; preds = %5
  %11 = load i8, ptr @TieredCompilation, align 1
  %12 = trunc i8 %11 to i1
  %13 = add i64 %8, -1
  %14 = icmp ult i64 %13, 3
  %spec.select.i.i = select i1 %12, i1 %14, i1 false
  %15 = load i32, ptr @_ZN19CompilationModeFlag5_modeE, align 4
  %16 = icmp eq i32 %15, 1
  %17 = or i1 %spec.select.i.i, %16
  br i1 %17, label %18, label %_ZN14CompilerConfig19is_c1_only_no_jvmciEv.exit

18:                                               ; preds = %_ZN14CompilerConfig10is_c1_onlyEv.exit.i
  %19 = load i8, ptr @EnableJVMCI, align 1
  %20 = trunc i8 %19 to i1
  br label %_ZN14CompilerConfig19is_c1_only_no_jvmciEv.exit

_ZN14CompilerConfig19is_c1_only_no_jvmciEv.exit:  ; preds = %5, %_ZN14CompilerConfig10is_c1_onlyEv.exit.i, %18
  %.not7 = phi i1 [ true, %_ZN14CompilerConfig10is_c1_onlyEv.exit.i ], [ %20, %18 ], [ true, %5 ]
  %brmerge.not = and i1 %.not7, %4
  br i1 %brmerge.not, label %28, label %21

21:                                               ; preds = %_ZN14CompilerConfig19is_c1_only_no_jvmciEv.exit
  %22 = getelementptr inbounds i8, ptr %2, i64 16
  %23 = load ptr, ptr %22, align 8
  %.not.i = icmp eq ptr %23, null
  br i1 %.not.i, label %_ZNK10ciMetadata9is_loadedEv.exit, label %_ZNK10ciMetadata9is_loadedEv.exit.thread

_ZNK10ciMetadata9is_loadedEv.exit:                ; preds = %21
  %24 = load ptr, ptr %2, align 8
  %25 = getelementptr inbounds i8, ptr %24, i64 32
  %26 = load ptr, ptr %25, align 8
  %27 = tail call noundef zeroext i1 %26(ptr noundef nonnull align 8 dereferenceable(24) %2) #17
  br i1 %27, label %_ZNK10ciMetadata9is_loadedEv.exit._ZNK10ciMetadata9is_loadedEv.exit.thread_crit_edge, label %28

_ZNK10ciMetadata9is_loadedEv.exit._ZNK10ciMetadata9is_loadedEv.exit.thread_crit_edge: ; preds = %_ZNK10ciMetadata9is_loadedEv.exit
  %.pre = load ptr, ptr %22, align 8
  br label %_ZNK10ciMetadata9is_loadedEv.exit.thread

28:                                               ; preds = %_ZN14CompilerConfig19is_c1_only_no_jvmciEv.exit, %_ZNK10ciMetadata9is_loadedEv.exit
  %29 = getelementptr inbounds i8, ptr %0, i64 144
  %30 = load ptr, ptr %29, align 8
  tail call void @_ZN8LIR_List15klass2reg_patchEP8Metadata7LIR_OprP12CodeEmitInfo(ptr noundef nonnull align 8 dereferenceable(32) %30, ptr noundef null, i64 %1, ptr noundef %3) #17
  br label %34

_ZNK10ciMetadata9is_loadedEv.exit.thread:         ; preds = %_ZNK10ciMetadata9is_loadedEv.exit._ZNK10ciMetadata9is_loadedEv.exit.thread_crit_edge, %21
  %31 = phi ptr [ %.pre, %_ZNK10ciMetadata9is_loadedEv.exit._ZNK10ciMetadata9is_loadedEv.exit.thread_crit_edge ], [ %23, %21 ]
  %32 = getelementptr inbounds i8, ptr %0, i64 144
  %33 = load ptr, ptr %32, align 8
  tail call void @_ZN8LIR_List12metadata2regEP8Metadata7LIR_Opr(ptr noundef nonnull align 8 dereferenceable(32) %33, ptr noundef %31, i64 %1)
  br label %34

34:                                               ; preds = %_ZNK10ciMetadata9is_loadedEv.exit.thread, %28
  ret void
}